target datalayout = "e-m:e-p270:32:32-p271:32:32-p272:64:64-i64:64-i128:128-f80:128-n8:16:32:64-S128"
target triple = "x86_64-pc-linux-gnu"

%"class.std::__cxx11::basic_string" = type { %"struct.std::__cxx11::basic_string<char>::_Alloc_hider", i64, %union.anon }
%"struct.std::__cxx11::basic_string<char>::_Alloc_hider" = type { ptr }
%union.anon = type { i64, [8 x i8] }
%struct.cmGeneratorExpressionDAGChecker = type <{ ptr, ptr, %"class.std::__cxx11::basic_string", %"class.std::map", ptr, %class.cmListFileBacktrace, i32, i8, i8, [2 x i8] }>
%"class.std::map" = type { %"class.std::_Rb_tree" }
%"class.std::_Rb_tree" = type { %"struct.std::_Rb_tree<const cmGeneratorTarget *, std::pair<const cmGeneratorTarget *const, std::set<std::__cxx11::basic_string<char>>>, std::_Select1st<std::pair<const cmGeneratorTarget *const, std::set<std::__cxx11::basic_string<char>>>>, std::less<const cmGeneratorTarget *>>::_Rb_tree_impl" }
%"struct.std::_Rb_tree<const cmGeneratorTarget *, std::pair<const cmGeneratorTarget *const, std::set<std::__cxx11::basic_string<char>>>, std::_Select1st<std::pair<const cmGeneratorTarget *const, std::set<std::__cxx11::basic_string<char>>>>, std::less<const cmGeneratorTarget *>>::_Rb_tree_impl" = type { %"struct.std::_Rb_tree_key_compare", %"struct.std::_Rb_tree_header" }
%"struct.std::_Rb_tree_key_compare" = type { %"struct.std::less" }
%"struct.std::less" = type { i8 }
%"struct.std::_Rb_tree_header" = type { %"struct.std::_Rb_tree_node_base", i64 }
%"struct.std::_Rb_tree_node_base" = type { i32, ptr, ptr, ptr }
%class.cmListFileBacktrace = type { %class.cmConstStack }
%class.cmConstStack = type { %"class.std::shared_ptr" }
%"class.std::shared_ptr" = type { %"class.std::__shared_ptr" }
%"class.std::__shared_ptr" = type { ptr, %"class.std::__shared_count" }
%"class.std::__shared_count" = type { ptr }

@.str.34 = private unnamed_addr constant [20 x i8] c"AUTOMOC_MACRO_NAMES\00", align 1
@.str.35 = private unnamed_addr constant [30 x i8] c"INTERFACE_AUTOMOC_MACRO_NAMES\00", align 1

; Function Attrs: mustprogress nounwind uwtable
define linkonce_odr dso_local noundef zeroext i1 @_Z14additionalTestIL18TransitiveProperty4EEbPKc(ptr noundef %0) #5 comdat {
  %2 = alloca ptr, align 8
  store ptr %0, ptr %2, align 8
  ret i1 false
}

; Function Attrs: mustprogress uwtable
define dso_local noundef zeroext i1 @_ZNK31cmGeneratorExpressionDAGChecker27EvaluatingAutoMocMacroNamesEv(ptr noundef nonnull align 8 dereferenceable(126) %0) #4 align 2 {
  %2 = alloca i1, align 1
  %3 = alloca ptr, align 8
  %4 = alloca ptr, align 8
  store ptr %0, ptr %3, align 8
  %5 = load ptr, ptr %3, align 8
  %6 = getelementptr inbounds %struct.cmGeneratorExpressionDAGChecker, ptr %5, i32 0, i32 2
  %7 = call noundef ptr @_ZNKSt7__cxx1112basic_stringIcSt11char_traitsIcESaIcEE5c_strEv(ptr noundef nonnull align 8 dereferenceable(32) %6) #3
  store ptr %7, ptr %4, align 8
  %8 = load ptr, ptr %4, align 8
  %9 = call i32 @strcmp(ptr noundef %8, ptr noundef @.str.34) #13
  %10 = icmp eq i32 %9, 0
  br i1 %10, label %15, label %11

11:                                               ; preds = %1
  %12 = load ptr, ptr %4, align 8
  %13 = call i32 @strcmp(ptr noundef %12, ptr noundef @.str.35) #13
  %14 = icmp eq i32 %13, 0
  br i1 %14, label %15, label %16

15:                                               ; preds = %11, %1
  store i1 true, ptr %2, align 1
  br label %19

16:                                               ; preds = %11
  %17 = load ptr, ptr %4, align 8
  %18 = call noundef zeroext i1 @_Z14additionalTestIL18TransitiveProperty4EEbPKc(ptr noundef %17)
  store i1 %18, ptr %2, align 1
  br label %19

19:                                               ; preds = %16, %15
  %20 = load i1, ptr %2, align 1
  ret i1 %20
}